; Function Attrs: mustprogress nounwind uwtable
define hidden noundef ptr @_ZN14G1BarrierSetC231write_ref_field_post_entry_TypeEv() local_unnamed_addr #0 align 2 {
  %1 = tail call noundef ptr @_ZN9TypeTuple6fieldsEj(i32 noundef 2) #6
  %2 = load ptr, ptr @_ZN10TypeRawPtr7NOTNULLE, align 8
  %3 = getelementptr inbounds i8, ptr %1, i64 40
  store ptr %2, ptr %3, align 8
  %4 = getelementptr inbounds i8, ptr %1, i64 48
  store ptr %2, ptr %4, align 8
  %5 = tail call noundef ptr @_ZN9TypeTuple4makeEjPPK4Type(i32 noundef 7, ptr noundef %1) #6
  %6 = tail call noundef ptr @_ZN9TypeTuple6fieldsEj(i32 noundef 0) #6
  %7 = tail call noundef ptr @_ZN9TypeTuple4makeEjPPK4Type(i32 noundef 5, ptr noundef %6) #6
  %8 = tail call noundef ptr @_ZN8TypeFunc4makeEPK9TypeTupleS2_(ptr noundef %5, ptr noundef %7) #6
  ret ptr %8
}